; Function Attrs: mustprogress nofree norecurse nosync nounwind willreturn memory(argmem: write) uwtable
define range(i32 0, 2) i32 @ROCKSDB_XXH3_64bits_reset(ptr noundef writeonly captures(none) %0) local_unnamed_addr #11 {
  %2 = icmp eq ptr %0, null
  br i1 %2, label %16, label %3

3:                                                ; preds = %1
  %4 = getelementptr inbounds nuw i8, ptr %0, i64 512
  tail call void @llvm.memset.p0.i64(ptr noundef nonnull align 1 dereferenceable(24) %4, i8 0, i64 24, i1 false)
  store i64 3266489917, ptr %0, align 64, !tbaa !19
  %5 = getelementptr inbounds nuw i8, ptr %0, i64 8
  store i64 -7046029288634856825, ptr %5, align 8, !tbaa !19
  %6 = getelementptr inbounds nuw i8, ptr %0, i64 16
  store i64 -4417276706812531889, ptr %6, align 16, !tbaa !19
  %7 = getelementptr inbounds nuw i8, ptr %0, i64 24
  store i64 1609587929392839161, ptr %7, align 8, !tbaa !19
  %8 = getelementptr inbounds nuw i8, ptr %0, i64 32
  store i64 -8796714831421723037, ptr %8, align 32, !tbaa !19
  %9 = getelementptr inbounds nuw i8, ptr %0, i64 40
  store i64 2246822519, ptr %9, align 8, !tbaa !19
  %10 = getelementptr inbounds nuw i8, ptr %0, i64 48
  store i64 2870177450012600261, ptr %10, align 16, !tbaa !19
  %11 = getelementptr inbounds nuw i8, ptr %0, i64 56
  store i64 2654435761, ptr %11, align 8, !tbaa !19
  %12 = getelementptr inbounds nuw i8, ptr %0, i64 552
  store i64 0, ptr %12, align 8, !tbaa !33
  %13 = getelementptr inbounds nuw i8, ptr %0, i64 568
  store ptr @_ZL12XXH3_kSecret, ptr %13, align 8, !tbaa !37
  %14 = getelementptr inbounds nuw i8, ptr %0, i64 544
  store i64 128, ptr %14, align 32, !tbaa !38
  %15 = getelementptr inbounds nuw i8, ptr %0, i64 536
  store i64 16, ptr %15, align 8, !tbaa !39
  br label %16

16:                                               ; preds = %1, %3
  %.0 = phi i32 [ 0, %3 ], [ 1, %1 ]
  ret i32 %.0
}